target datalayout = "e-m:e-p270:32:32-p271:32:32-p272:64:64-i64:64-i128:128-f80:128-n8:16:32:64-S128"
target triple = "x86_64-pc-linux-gnu"

%"class.std::__shared_count" = type { ptr }
%"class.arrow::TypedBufferBuilder" = type { %"class.arrow::BufferBuilder", i64, i64 }
%"class.arrow::BufferBuilder" = type { %"class.std::shared_ptr.97", ptr, ptr, i64, i64, i64 }
%"class.std::shared_ptr.97" = type { %"class.std::__shared_ptr.98" }
%"class.std::__shared_ptr.98" = type { ptr, %"class.std::__shared_count" }
%"class.arrow::TypedBufferBuilder.205" = type { %"class.arrow::BufferBuilder" }
%"class.arrow::TypedBufferBuilder.278" = type { %"class.arrow::BufferBuilder" }
%"struct.arrow::compute::internal::(anonymous namespace)::VarBinarySelectionImpl.291" = type { %"struct.arrow::compute::internal::(anonymous namespace)::Selection.292", %"class.arrow::TypedBufferBuilder.205", %"class.arrow::TypedBufferBuilder.278" }
%"struct.arrow::compute::internal::(anonymous namespace)::Selection.292" = type { ptr, ptr, ptr, ptr, i64, ptr, %"class.arrow::TypedBufferBuilder" }
%"class.std::_Sp_counted_base" = type { ptr, i32, i32 }

@__libc_single_threaded = external global i8, align 1

; Function Attrs: alwaysinline mustprogress nounwind uwtable
define linkonce_odr noundef i32 @_ZN9__gnu_cxx18__exchange_and_addEPVii(ptr noundef %0, i32 noundef %1) #10 comdat {
  %3 = alloca ptr, align 8
  %4 = alloca i32, align 4
  %5 = alloca i32, align 4
  %6 = alloca i32, align 4
  store ptr %0, ptr %3, align 8, !tbaa !249
  store i32 %1, ptr %4, align 4, !tbaa !8
  %7 = load ptr, ptr %3, align 8, !tbaa !249
  %8 = load i32, ptr %4, align 4, !tbaa !8
  store i32 %8, ptr %5, align 4, !tbaa !8
  %9 = load i32, ptr %5, align 4
  %10 = atomicrmw volatile add ptr %7, i32 %9 acq_rel, align 4
  store i32 %10, ptr %6, align 4
  %11 = load i32, ptr %6, align 4, !tbaa !8
  ret i32 %11
}

; Function Attrs: alwaysinline mustprogress nounwind uwtable
define linkonce_odr noundef i32 @_ZN9__gnu_cxx25__exchange_and_add_singleEPii(ptr noundef %0, i32 noundef %1) #10 comdat {
  %3 = alloca ptr, align 8
  %4 = alloca i32, align 4
  %5 = alloca i32, align 4
  store ptr %0, ptr %3, align 8, !tbaa !249
  store i32 %1, ptr %4, align 4, !tbaa !8
  call void @llvm.lifetime.start.p0(i64 4, ptr %5) #20
  %6 = load ptr, ptr %3, align 8, !tbaa !249
  %7 = load i32, ptr %6, align 4, !tbaa !8
  store i32 %7, ptr %5, align 4, !tbaa !8
  %8 = load i32, ptr %4, align 4, !tbaa !8
  %9 = load ptr, ptr %3, align 8, !tbaa !249
  %10 = load i32, ptr %9, align 4, !tbaa !8
  %11 = add nsw i32 %10, %8
  store i32 %11, ptr %9, align 4, !tbaa !8
  %12 = load i32, ptr %5, align 4, !tbaa !8
  call void @llvm.lifetime.end.p0(i64 4, ptr %5) #20
  ret i32 %12
}

; Function Attrs: alwaysinline mustprogress nounwind uwtable
define linkonce_odr noundef zeroext i1 @_ZN9__gnu_cxx20__is_single_threadedEv() #10 comdat {
  %1 = load i8, ptr @__libc_single_threaded, align 1, !tbaa !22
  %2 = icmp ne i8 %1, 0
  ret i1 %2
}

; Function Attrs: noinline noreturn nounwind uwtable
define linkonce_odr hidden void @__clang_call_terminate(ptr noundef %0) #7 comdat {
  %2 = call ptr @__cxa_begin_catch(ptr %0) #20
  call void @_ZSt9terminatev() #21
  unreachable
}

; Function Attrs: alwaysinline mustprogress uwtable
define linkonce_odr noundef i32 @_ZN9__gnu_cxx27__exchange_and_add_dispatchEPii(ptr noundef %0, i32 noundef %1) #6 comdat {
  %3 = alloca i32, align 4
  %4 = alloca ptr, align 8
  %5 = alloca i32, align 4
  store ptr %0, ptr %4, align 8, !tbaa !249
  store i32 %1, ptr %5, align 4, !tbaa !8
  %6 = call noundef zeroext i1 @_ZN9__gnu_cxx20__is_single_threadedEv() #20
  br i1 %6, label %7, label %11

7:                                                ; preds = %2
  %8 = load ptr, ptr %4, align 8, !tbaa !249
  %9 = load i32, ptr %5, align 4, !tbaa !8
  %10 = call noundef i32 @_ZN9__gnu_cxx25__exchange_and_add_singleEPii(ptr noundef %8, i32 noundef %9)
  store i32 %10, ptr %3, align 4
  br label %15

11:                                               ; preds = %2
  %12 = load ptr, ptr %4, align 8, !tbaa !249
  %13 = load i32, ptr %5, align 4, !tbaa !8
  %14 = call noundef i32 @_ZN9__gnu_cxx18__exchange_and_addEPVii(ptr noundef %12, i32 noundef %13)
  store i32 %14, ptr %3, align 4
  br label %15

15:                                               ; preds = %11, %7
  %16 = load i32, ptr %3, align 4
  ret i32 %16
}

; Function Attrs: inlinehint mustprogress nounwind uwtable
define linkonce_odr void @_ZNSt16_Sp_counted_baseILN9__gnu_cxx12_Lock_policyE2EE10_M_releaseEv(ptr noundef nonnull align 8 dereferenceable(16) %0) #4 comdat align 2 personality ptr @__gxx_personality_v0 {
  %2 = alloca ptr, align 8
  %3 = alloca i8, align 1
  %4 = alloca i8, align 1
  %5 = alloca i8, align 1
  %6 = alloca i32, align 4
  %7 = alloca i32, align 4
  %8 = alloca i64, align 8
  %9 = alloca ptr, align 8
  %10 = alloca i64, align 8
  %11 = alloca i32, align 4
  store ptr %0, ptr %2, align 8, !tbaa !237
  %12 = load ptr, ptr %2, align 8
  call void @llvm.lifetime.start.p0(i64 1, ptr %3) #20
  store i8 1, ptr %3, align 1, !tbaa !159
  call void @llvm.lifetime.start.p0(i64 1, ptr %4) #20
  store i8 1, ptr %4, align 1, !tbaa !159
  call void @llvm.lifetime.start.p0(i64 1, ptr %5) #20
  store i8 1, ptr %5, align 1, !tbaa !159
  call void @llvm.lifetime.start.p0(i64 4, ptr %6) #20
  store i32 32, ptr %6, align 4, !tbaa !8
  call void @llvm.lifetime.start.p0(i64 4, ptr %7) #20
  store i32 32, ptr %7, align 4, !tbaa !8
  call void @llvm.lifetime.start.p0(i64 8, ptr %8) #20
  store i64 4294967297, ptr %8, align 8, !tbaa !240
  call void @llvm.lifetime.start.p0(i64 8, ptr %9) #20
  %13 = getelementptr inbounds nuw %"class.std::_Sp_counted_base", ptr %12, i32 0, i32 1
  store ptr %13, ptr %9, align 8, !tbaa !242
  %14 = load ptr, ptr %9, align 8, !tbaa !242
  %15 = load atomic i64, ptr %14 acquire, align 8
  store i64 %15, ptr %10, align 8
  %16 = load i64, ptr %10, align 8, !tbaa !240
  %17 = icmp eq i64 %16, 4294967297
  br i1 %17, label %18, label %27

18:                                               ; preds = %1
  %19 = getelementptr inbounds nuw %"class.std::_Sp_counted_base", ptr %12, i32 0, i32 1
  store i32 0, ptr %19, align 8, !tbaa !244
  %20 = getelementptr inbounds nuw %"class.std::_Sp_counted_base", ptr %12, i32 0, i32 2
  store i32 0, ptr %20, align 4, !tbaa !246
  %21 = load ptr, ptr %12, align 8, !tbaa !247
  %22 = getelementptr inbounds ptr, ptr %21, i64 2
  %23 = load ptr, ptr %22, align 8
  call void %23(ptr noundef nonnull align 8 dereferenceable(16) %12) #20
  %24 = load ptr, ptr %12, align 8, !tbaa !247
  %25 = getelementptr inbounds ptr, ptr %24, i64 3
  %26 = load ptr, ptr %25, align 8
  call void %26(ptr noundef nonnull align 8 dereferenceable(16) %12) #20
  store i32 1, ptr %11, align 4
  br label %35

27:                                               ; preds = %1
  %28 = getelementptr inbounds nuw %"class.std::_Sp_counted_base", ptr %12, i32 0, i32 1
  %29 = invoke noundef i32 @_ZN9__gnu_cxx27__exchange_and_add_dispatchEPii(ptr noundef %28, i32 noundef -1)
          to label %30 unwind label %41

30:                                               ; preds = %27
  %31 = icmp eq i32 %29, 1
  %32 = call i1 @llvm.expect.i1(i1 %31, i1 false)
  br i1 %32, label %33, label %34

33:                                               ; preds = %30
  call void @_ZNSt16_Sp_counted_baseILN9__gnu_cxx12_Lock_policyE2EE24_M_release_last_use_coldEv(ptr noundef nonnull align 8 dereferenceable(16) %12) #20
  store i32 1, ptr %11, align 4
  br label %35

34:                                               ; preds = %30
  store i32 0, ptr %11, align 4
  br label %35

35:                                               ; preds = %34, %33, %18
  call void @llvm.lifetime.end.p0(i64 8, ptr %9) #20
  call void @llvm.lifetime.end.p0(i64 8, ptr %8) #20
  call void @llvm.lifetime.end.p0(i64 4, ptr %7) #20
  call void @llvm.lifetime.end.p0(i64 4, ptr %6) #20
  %36 = load i32, ptr %11, align 4
  switch i32 %36, label %38 [
    i32 0, label %37
  ]

37:                                               ; preds = %35
  store i32 0, ptr %11, align 4
  br label %38

38:                                               ; preds = %37, %35
  call void @llvm.lifetime.end.p0(i64 1, ptr %5) #20
  call void @llvm.lifetime.end.p0(i64 1, ptr %4) #20
  call void @llvm.lifetime.end.p0(i64 1, ptr %3) #20
  %39 = load i32, ptr %11, align 4
  switch i32 %39, label %44 [
    i32 0, label %40
    i32 1, label %40
  ]

40:                                               ; preds = %38, %38
  ret void

41:                                               ; preds = %27
  %42 = landingpad { ptr, i32 }
          catch ptr null
  %43 = extractvalue { ptr, i32 } %42, 0
  call void @__clang_call_terminate(ptr %43) #21
  unreachable

44:                                               ; preds = %38
  unreachable
}

; Function Attrs: mustprogress nounwind uwtable
define linkonce_odr void @_ZNSt14__shared_countILN9__gnu_cxx12_Lock_policyE2EED2Ev(ptr noundef nonnull align 8 dereferenceable(8) %0) unnamed_addr #0 comdat align 2 {
  %2 = alloca ptr, align 8
  store ptr %0, ptr %2, align 8, !tbaa !233
  %3 = load ptr, ptr %2, align 8
  %4 = getelementptr inbounds nuw %"class.std::__shared_count", ptr %3, i32 0, i32 0
  %5 = load ptr, ptr %4, align 8, !tbaa !235
  %6 = icmp ne ptr %5, null
  br i1 %6, label %7, label %10

7:                                                ; preds = %1
  %8 = getelementptr inbounds nuw %"class.std::__shared_count", ptr %3, i32 0, i32 0
  %9 = load ptr, ptr %8, align 8, !tbaa !235
  call void @_ZNSt16_Sp_counted_baseILN9__gnu_cxx12_Lock_policyE2EE10_M_releaseEv(ptr noundef nonnull align 8 dereferenceable(16) %9) #20
  br label %10

10:                                               ; preds = %7, %1
  ret void
}

; Function Attrs: mustprogress nounwind uwtable
define linkonce_odr void @_ZNSt12__shared_ptrIN5arrow15ResizableBufferELN9__gnu_cxx12_Lock_policyE2EED2Ev(ptr noundef nonnull align 8 dereferenceable(16) %0) unnamed_addr #0 comdat align 2 {
  %2 = alloca ptr, align 8
  store ptr %0, ptr %2, align 8, !tbaa !553
  %3 = load ptr, ptr %2, align 8
  %4 = getelementptr inbounds nuw %"class.std::__shared_ptr.98", ptr %3, i32 0, i32 1
  call void @_ZNSt14__shared_countILN9__gnu_cxx12_Lock_policyE2EED2Ev(ptr noundef nonnull align 8 dereferenceable(8) %4) #20
  ret void
}

; Function Attrs: inlinehint mustprogress nounwind uwtable
define linkonce_odr void @_ZN5arrow18TypedBufferBuilderIbvED2Ev(ptr noundef nonnull align 8 dereferenceable(72) %0) unnamed_addr #4 comdat align 2 {
  %2 = alloca ptr, align 8
  store ptr %0, ptr %2, align 8, !tbaa !521
  %3 = load ptr, ptr %2, align 8
  %4 = getelementptr inbounds nuw %"class.arrow::TypedBufferBuilder", ptr %3, i32 0, i32 0
  call void @_ZN5arrow13BufferBuilderD2Ev(ptr noundef nonnull align 8 dereferenceable(56) %4) #20
  ret void
}

; Function Attrs: inlinehint mustprogress nounwind uwtable
define linkonce_odr void @_ZN5arrow13BufferBuilderD2Ev(ptr noundef nonnull align 8 dereferenceable(56) %0) unnamed_addr #4 comdat align 2 {
  %2 = alloca ptr, align 8
  store ptr %0, ptr %2, align 8, !tbaa !544
  %3 = load ptr, ptr %2, align 8
  %4 = getelementptr inbounds nuw %"class.arrow::BufferBuilder", ptr %3, i32 0, i32 0
  call void @_ZNSt12__shared_ptrIN5arrow15ResizableBufferELN9__gnu_cxx12_Lock_policyE2EED2Ev(ptr noundef nonnull align 8 dereferenceable(16) %4) #20
  ret void
}

; Function Attrs: mustprogress nounwind uwtable
define internal void @_ZN5arrow7compute8internal12_GLOBAL__N_19SelectionINS2_22VarBinarySelectionImplINS_15LargeBinaryTypeEEES5_ED2Ev(ptr noundef nonnull align 8 dereferenceable(120) %0) unnamed_addr #0 align 2 {
  %2 = alloca ptr, align 8
  store ptr %0, ptr %2, align 8, !tbaa !1395
  %3 = load ptr, ptr %2, align 8
  store ptr getelementptr inbounds inrange(-16, 32) ({ [6 x ptr] }, ptr @_ZTVN5arrow7compute8internal12_GLOBAL__N_19SelectionINS2_22VarBinarySelectionImplINS_15LargeBinaryTypeEEES5_EE, i32 0, i32 0, i32 2), ptr %3, align 8, !tbaa !247
  %4 = getelementptr inbounds nuw %"struct.arrow::compute::internal::(anonymous namespace)::Selection.292", ptr %3, i32 0, i32 6
  call void @_ZN5arrow18TypedBufferBuilderIbvED2Ev(ptr noundef nonnull align 8 dereferenceable(72) %4) #20
  ret void
}

; Function Attrs: inlinehint mustprogress nounwind uwtable
define linkonce_odr void @_ZN5arrow18TypedBufferBuilderIlvED2Ev(ptr noundef nonnull align 8 dereferenceable(56) %0) unnamed_addr #4 comdat align 2 {
  %2 = alloca ptr, align 8
  store ptr %0, ptr %2, align 8, !tbaa !906
  %3 = load ptr, ptr %2, align 8
  %4 = getelementptr inbounds nuw %"class.arrow::TypedBufferBuilder.205", ptr %3, i32 0, i32 0
  call void @_ZN5arrow13BufferBuilderD2Ev(ptr noundef nonnull align 8 dereferenceable(56) %4) #20
  ret void
}

; Function Attrs: inlinehint mustprogress nounwind uwtable
define linkonce_odr void @_ZN5arrow18TypedBufferBuilderIhvED2Ev(ptr noundef nonnull align 8 dereferenceable(56) %0) unnamed_addr #4 comdat align 2 {
  %2 = alloca ptr, align 8
  store ptr %0, ptr %2, align 8, !tbaa !1318
  %3 = load ptr, ptr %2, align 8
  %4 = getelementptr inbounds nuw %"class.arrow::TypedBufferBuilder.278", ptr %3, i32 0, i32 0
  call void @_ZN5arrow13BufferBuilderD2Ev(ptr noundef nonnull align 8 dereferenceable(56) %4) #20
  ret void
}

; Function Attrs: inlinehint mustprogress nounwind uwtable
define internal void @_ZN5arrow7compute8internal12_GLOBAL__N_122VarBinarySelectionImplINS_15LargeBinaryTypeEED2Ev(ptr noundef nonnull align 8 dereferenceable(232) %0) unnamed_addr #4 align 2 {
  %2 = alloca ptr, align 8
  store ptr %0, ptr %2, align 8, !tbaa !1393
  %3 = load ptr, ptr %2, align 8
  store ptr getelementptr inbounds inrange(-16, 32) ({ [6 x ptr] }, ptr @_ZTVN5arrow7compute8internal12_GLOBAL__N_122VarBinarySelectionImplINS_15LargeBinaryTypeEEE, i32 0, i32 0, i32 2), ptr %3, align 8, !tbaa !247
  %4 = getelementptr inbounds nuw %"struct.arrow::compute::internal::(anonymous namespace)::VarBinarySelectionImpl.291", ptr %3, i32 0, i32 2
  call void @_ZN5arrow18TypedBufferBuilderIhvED2Ev(ptr noundef nonnull align 8 dereferenceable(56) %4) #20
  %5 = getelementptr inbounds nuw %"struct.arrow::compute::internal::(anonymous namespace)::VarBinarySelectionImpl.291", ptr %3, i32 0, i32 1
  call void @_ZN5arrow18TypedBufferBuilderIlvED2Ev(ptr noundef nonnull align 8 dereferenceable(56) %5) #20
  call void @_ZN5arrow7compute8internal12_GLOBAL__N_19SelectionINS2_22VarBinarySelectionImplINS_15LargeBinaryTypeEEES5_ED2Ev(ptr noundef nonnull align 8 dereferenceable(120) %3) #20
  ret void
}