; Function Attrs: inlinehint mustprogress nounwind uwtable
define internal void @_ZN5arrow7compute8internal12_GLOBAL__N_122VarBinarySelectionImplINS_15LargeBinaryTypeEED2Ev(ptr noundef nonnull align 8 captures(none) dereferenceable(232) initializes((0, 8)) %0) unnamed_addr #4 align 2 personality ptr @__gxx_personality_v0 {
  store ptr getelementptr inbounds nuw inrange(-16, 32) (i8, ptr @_ZTVN5arrow7compute8internal12_GLOBAL__N_122VarBinarySelectionImplINS_15LargeBinaryTypeEEE, i64 16), ptr %0, align 8, !tbaa !41
  %2 = getelementptr inbounds nuw i8, ptr %0, i64 184
  %3 = load ptr, ptr %2, align 8, !tbaa !43
  %.not.i.i.i.i = icmp eq ptr %3, null
  br i1 %.not.i.i.i.i, label %_ZN5arrow18TypedBufferBuilderIhvED2Ev.exit, label %4

4:                                                ; preds = %1
  %5 = getelementptr inbounds nuw i8, ptr %3, i64 8
  %6 = load atomic i64, ptr %5 acquire, align 8
  %7 = icmp eq i64 %6, 4294967297
  %8 = trunc i64 %6 to i32
  br i1 %7, label %9, label %17

9:                                                ; preds = %4
  store i32 0, ptr %5, align 8, !tbaa !38
  %10 = getelementptr inbounds nuw i8, ptr %3, i64 12
  store i32 0, ptr %10, align 4, !tbaa !40
  %11 = load ptr, ptr %3, align 8, !tbaa !41
  %12 = getelementptr inbounds nuw i8, ptr %11, i64 16
  %13 = load ptr, ptr %12, align 8
  tail call void %13(ptr noundef nonnull align 8 dereferenceable(16) %3) #25
  %14 = load ptr, ptr %3, align 8, !tbaa !41
  %15 = getelementptr inbounds nuw i8, ptr %14, i64 24
  %16 = load ptr, ptr %15, align 8
  tail call void %16(ptr noundef nonnull align 8 dereferenceable(16) %3) #25
  br label %_ZN5arrow18TypedBufferBuilderIhvED2Ev.exit

17:                                               ; preds = %4
  %18 = load i8, ptr @__libc_single_threaded, align 1, !tbaa !74
  %.not.i.i.i.i.i = icmp eq i8 %18, 0
  br i1 %.not.i.i.i.i.i, label %21, label %19

19:                                               ; preds = %17
  %20 = add nsw i32 %8, -1
  store i32 %20, ptr %5, align 4, !tbaa !75
  br label %_ZN9__gnu_cxx27__exchange_and_add_dispatchEPii.exit.i.i.i.i.i

21:                                               ; preds = %17
  %22 = atomicrmw volatile add ptr %5, i32 -1 acq_rel, align 4
  br label %_ZN9__gnu_cxx27__exchange_and_add_dispatchEPii.exit.i.i.i.i.i

_ZN9__gnu_cxx27__exchange_and_add_dispatchEPii.exit.i.i.i.i.i: ; preds = %21, %19
  %.0.i.i.i.i.i.i = phi i32 [ %8, %19 ], [ %22, %21 ]
  %23 = icmp eq i32 %.0.i.i.i.i.i.i, 1
  br i1 %23, label %24, label %_ZN5arrow18TypedBufferBuilderIhvED2Ev.exit, !prof !76

24:                                               ; preds = %_ZN9__gnu_cxx27__exchange_and_add_dispatchEPii.exit.i.i.i.i.i
  tail call void @_ZNSt16_Sp_counted_baseILN9__gnu_cxx12_Lock_policyE2EE24_M_release_last_use_coldEv(ptr noundef nonnull align 8 dereferenceable(16) %3) #25
  br label %_ZN5arrow18TypedBufferBuilderIhvED2Ev.exit

_ZN5arrow18TypedBufferBuilderIhvED2Ev.exit:       ; preds = %1, %9, %_ZN9__gnu_cxx27__exchange_and_add_dispatchEPii.exit.i.i.i.i.i, %24
  %25 = getelementptr inbounds nuw i8, ptr %0, i64 128
  %26 = load ptr, ptr %25, align 8, !tbaa !43
  %.not.i.i.i.i1 = icmp eq ptr %26, null
  br i1 %.not.i.i.i.i1, label %_ZN5arrow18TypedBufferBuilderIlvED2Ev.exit, label %27

27:                                               ; preds = %_ZN5arrow18TypedBufferBuilderIhvED2Ev.exit
  %28 = getelementptr inbounds nuw i8, ptr %26, i64 8
  %29 = load atomic i64, ptr %28 acquire, align 8
  %30 = icmp eq i64 %29, 4294967297
  %31 = trunc i64 %29 to i32
  br i1 %30, label %32, label %40

32:                                               ; preds = %27
  store i32 0, ptr %28, align 8, !tbaa !38
  %33 = getelementptr inbounds nuw i8, ptr %26, i64 12
  store i32 0, ptr %33, align 4, !tbaa !40
  %34 = load ptr, ptr %26, align 8, !tbaa !41
  %35 = getelementptr inbounds nuw i8, ptr %34, i64 16
  %36 = load ptr, ptr %35, align 8
  tail call void %36(ptr noundef nonnull align 8 dereferenceable(16) %26) #25
  %37 = load ptr, ptr %26, align 8, !tbaa !41
  %38 = getelementptr inbounds nuw i8, ptr %37, i64 24
  %39 = load ptr, ptr %38, align 8
  tail call void %39(ptr noundef nonnull align 8 dereferenceable(16) %26) #25
  br label %_ZN5arrow18TypedBufferBuilderIlvED2Ev.exit

40:                                               ; preds = %27
  %41 = load i8, ptr @__libc_single_threaded, align 1, !tbaa !74
  %.not.i.i.i.i.i2 = icmp eq i8 %41, 0
  br i1 %.not.i.i.i.i.i2, label %44, label %42

42:                                               ; preds = %40
  %43 = add nsw i32 %31, -1
  store i32 %43, ptr %28, align 4, !tbaa !75
  br label %_ZN9__gnu_cxx27__exchange_and_add_dispatchEPii.exit.i.i.i.i.i3

44:                                               ; preds = %40
  %45 = atomicrmw volatile add ptr %28, i32 -1 acq_rel, align 4
  br label %_ZN9__gnu_cxx27__exchange_and_add_dispatchEPii.exit.i.i.i.i.i3

_ZN9__gnu_cxx27__exchange_and_add_dispatchEPii.exit.i.i.i.i.i3: ; preds = %44, %42
  %.0.i.i.i.i.i.i4 = phi i32 [ %31, %42 ], [ %45, %44 ]
  %46 = icmp eq i32 %.0.i.i.i.i.i.i4, 1
  br i1 %46, label %47, label %_ZN5arrow18TypedBufferBuilderIlvED2Ev.exit, !prof !76

47:                                               ; preds = %_ZN9__gnu_cxx27__exchange_and_add_dispatchEPii.exit.i.i.i.i.i3
  tail call void @_ZNSt16_Sp_counted_baseILN9__gnu_cxx12_Lock_policyE2EE24_M_release_last_use_coldEv(ptr noundef nonnull align 8 dereferenceable(16) %26) #25
  br label %_ZN5arrow18TypedBufferBuilderIlvED2Ev.exit

_ZN5arrow18TypedBufferBuilderIlvED2Ev.exit:       ; preds = %_ZN5arrow18TypedBufferBuilderIhvED2Ev.exit, %32, %_ZN9__gnu_cxx27__exchange_and_add_dispatchEPii.exit.i.i.i.i.i3, %47
  store ptr getelementptr inbounds nuw inrange(-16, 32) (i8, ptr @_ZTVN5arrow7compute8internal12_GLOBAL__N_19SelectionINS2_22VarBinarySelectionImplINS_15LargeBinaryTypeEEES5_EE, i64 16), ptr %0, align 8, !tbaa !41
  %48 = getelementptr inbounds nuw i8, ptr %0, i64 56
  %49 = load ptr, ptr %48, align 8, !tbaa !43
  %.not.i.i.i.i.i5 = icmp eq ptr %49, null
  br i1 %.not.i.i.i.i.i5, label %_ZN5arrow7compute8internal12_GLOBAL__N_19SelectionINS2_22VarBinarySelectionImplINS_15LargeBinaryTypeEEES5_ED2Ev.exit, label %50

50:                                               ; preds = %_ZN5arrow18TypedBufferBuilderIlvED2Ev.exit
  %51 = getelementptr inbounds nuw i8, ptr %49, i64 8
  %52 = load atomic i64, ptr %51 acquire, align 8
  %53 = icmp eq i64 %52, 4294967297
  %54 = trunc i64 %52 to i32
  br i1 %53, label %55, label %63

55:                                               ; preds = %50
  store i32 0, ptr %51, align 8, !tbaa !38
  %56 = getelementptr inbounds nuw i8, ptr %49, i64 12
  store i32 0, ptr %56, align 4, !tbaa !40
  %57 = load ptr, ptr %49, align 8, !tbaa !41
  %58 = getelementptr inbounds nuw i8, ptr %57, i64 16
  %59 = load ptr, ptr %58, align 8
  tail call void %59(ptr noundef nonnull align 8 dereferenceable(16) %49) #25
  %60 = load ptr, ptr %49, align 8, !tbaa !41
  %61 = getelementptr inbounds nuw i8, ptr %60, i64 24
  %62 = load ptr, ptr %61, align 8
  tail call void %62(ptr noundef nonnull align 8 dereferenceable(16) %49) #25
  br label %_ZN5arrow7compute8internal12_GLOBAL__N_19SelectionINS2_22VarBinarySelectionImplINS_15LargeBinaryTypeEEES5_ED2Ev.exit

63:                                               ; preds = %50
  %64 = load i8, ptr @__libc_single_threaded, align 1, !tbaa !74
  %.not.i.i.i.i.i.i = icmp eq i8 %64, 0
  br i1 %.not.i.i.i.i.i.i, label %67, label %65

65:                                               ; preds = %63
  %66 = add nsw i32 %54, -1
  store i32 %66, ptr %51, align 4, !tbaa !75
  br label %_ZN9__gnu_cxx27__exchange_and_add_dispatchEPii.exit.i.i.i.i.i.i

67:                                               ; preds = %63
  %68 = atomicrmw volatile add ptr %51, i32 -1 acq_rel, align 4
  br label %_ZN9__gnu_cxx27__exchange_and_add_dispatchEPii.exit.i.i.i.i.i.i

_ZN9__gnu_cxx27__exchange_and_add_dispatchEPii.exit.i.i.i.i.i.i: ; preds = %67, %65
  %.0.i.i.i.i.i.i.i = phi i32 [ %54, %65 ], [ %68, %67 ]
  %69 = icmp eq i32 %.0.i.i.i.i.i.i.i, 1
  br i1 %69, label %70, label %_ZN5arrow7compute8internal12_GLOBAL__N_19SelectionINS2_22VarBinarySelectionImplINS_15LargeBinaryTypeEEES5_ED2Ev.exit, !prof !76

70:                                               ; preds = %_ZN9__gnu_cxx27__exchange_and_add_dispatchEPii.exit.i.i.i.i.i.i
  tail call void @_ZNSt16_Sp_counted_baseILN9__gnu_cxx12_Lock_policyE2EE24_M_release_last_use_coldEv(ptr noundef nonnull align 8 dereferenceable(16) %49) #25
  br label %_ZN5arrow7compute8internal12_GLOBAL__N_19SelectionINS2_22VarBinarySelectionImplINS_15LargeBinaryTypeEEES5_ED2Ev.exit

_ZN5arrow7compute8internal12_GLOBAL__N_19SelectionINS2_22VarBinarySelectionImplINS_15LargeBinaryTypeEEES5_ED2Ev.exit: ; preds = %_ZN5arrow18TypedBufferBuilderIlvED2Ev.exit, %55, %_ZN9__gnu_cxx27__exchange_and_add_dispatchEPii.exit.i.i.i.i.i.i, %70
  ret void
}